; Function Attrs: null_pointer_is_valid sspstrong uwtable
define internal noundef ptr @copy_spdu_dlt_mapping_cb(ptr noundef returned writeonly captures(ret: address, provenance) initializes((0, 16)) %0, ptr noundef readonly captures(none) %1, i64 %2) #0 {
  %4 = load ptr, ptr %1, align 8
  %.not = icmp eq ptr %4, null
  br i1 %.not, label %7, label %5

5:                                                ; preds = %3
  %6 = tail call noalias ptr @g_strdup(ptr noundef nonnull %4)
  br label %7

7:                                                ; preds = %3, %5
  %storemerge = phi ptr [ %6, %5 ], [ null, %3 ]
  store ptr %storemerge, ptr %0, align 8
  %8 = getelementptr inbounds nuw i8, ptr %1, i64 8
  %9 = load i32, ptr %8, align 8
  %10 = getelementptr inbounds nuw i8, ptr %0, i64 8
  store i32 %9, ptr %10, align 8
  %11 = getelementptr inbounds nuw i8, ptr %1, i64 12
  %12 = load i32, ptr %11, align 4
  %13 = getelementptr inbounds nuw i8, ptr %0, i64 12
  store i32 %12, ptr %13, align 4
  ret ptr %0
}